libboinc_api.so.8:_Z16boinc_msg_prefixPci
libboinc_api.so.8:_Z17boinc_upload_fileRNSt7__cxx1112basic_stringIcSt11char_traitsIcESaIcEEE
libboinc_api.so.8:_Z17boinc_wu_cpu_timeRd
libboinc_api.so.8:_Z18boinc_elapsed_timev
libboinc_api.so.8:_Z18boinc_sporadic_dirPKc
libboinc_api.so.8:_Z18start_timer_threadv
libboinc_api.so.8:_Z19boinc_get_init_dataR13APP_INIT_DATA
libboinc_api.so.8:_Z19boinc_upload_statusRNSt7__cxx1112basic_stringIcSt11char_traitsIcESaIcEEE
libboinc_api.so.8:_Z20boinc_finish_messageiPKcb
libboinc_api.so.8:_Z20boinc_temporary_exitiPKcb
libboinc_api.so.8:_Z24boinc_graphics_get_shmemPKc
libboinc_api.so.8:_Z25boinc_graphics_make_shmemPKci
libboinc_api.so.8:_Z26boinc_init_options_generalR13BOINC_OPTIONS
libboinc_api.so.8:_Z27boinc_parse_graphics_statusPdS_S_S_P12BOINC_STATUS
libboinc_api.so.8:_Z27boinc_report_app_status_auxdddidd
libboinc_api.so.8:_Z27boinc_sporadic_get_ca_statev
libboinc_api.so.8:_Z27boinc_sporadic_set_ac_state17SPORADIC_AC_STATE
libboinc_api.so.8:_Z27boinc_write_graphics_statusddd
libboinc_api.so.8:_ZN17REDUCED_ARRAY_GEN10update_maxEi
libboinc_api.so.8:_ZN17REDUCED_ARRAY_GEN14add_source_rowEPf
libboinc_api.so.8:_ZN17REDUCED_ARRAY_GEN17reduce_source_rowEPfS0_
libboinc_api.so.8:_ZN17REDUCED_ARRAY_GEN4fullEv
libboinc_api.so.8:_ZN17REDUCED_ARRAY_GEN9init_dataEii
libboinc_api.so.8:boinc_begin_critical_section
libboinc_api.so.8:boinc_checkpoint_completed
libboinc_api.so.8:boinc_end_critical_section
libboinc_api.so.8:boinc_finish
libboinc_api.so.8:boinc_fraction_done
libboinc_api.so.8:boinc_get_fraction_done
libboinc_api.so.8:boinc_get_init_data_p
libboinc_api.so.8:boinc_get_status
libboinc_api.so.8:boinc_init
libboinc_api.so.8:boinc_init_options
libboinc_api.so.8:boinc_init_parallel
libboinc_api.so.8:boinc_is_standalone
libboinc_api.so.8:boinc_need_network
libboinc_api.so.8:boinc_network_done
libboinc_api.so.8:boinc_network_poll
libboinc_api.so.8:boinc_network_usage
libboinc_api.so.8:boinc_parse_init_data_file
libboinc_api.so.8:boinc_receive_trickle_down
libboinc_api.so.8:boinc_register_timer_callback
libboinc_api.so.8:boinc_remote_desktop_addr
libboinc_api.so.8:boinc_report_app_status
libboinc_api.so.8:boinc_send_trickle_up
libboinc_api.so.8:boinc_set_min_checkpoint_period
libboinc_api.so.8:boinc_time_to_checkpoint
libboinc_api.so.8:boinc_web_graphics_url
libboinc_api.so.8:boinc_worker_thread_cpu_time
libboinc_opencl.so.8:_Z10get_vendorP13_cl_device_idPci
libboinc_opencl.so.8:_Z20boinc_get_opencl_idsPP13_cl_device_idPP15_cl_platform_id
libboinc_opencl.so.8:_Z20boinc_get_opencl_idsiPPciPP13_cl_device_idPP15_cl_platform_id
libboinc_opencl.so.8:_Z24boinc_get_opencl_ids_auxPciiPP13_cl_device_idPP15_cl_platform_id
